; Function Attrs: mustprogress nofree norecurse nosync nounwind willreturn memory(read, argmem: write, inaccessiblemem: none) uwtable
define internal noundef i32 @H5D__none_idx_reset(ptr noundef writeonly captures(none) %0, i1 noundef zeroext %1) #2 {
  %3 = load i8, ptr @H5D_init_g, align 1, !tbaa !3, !range !7, !noundef !8
  %4 = trunc nuw i8 %3 to i1
  %5 = load i8, ptr @H5_libterm_g, align 1, !range !7
  %6 = trunc nuw i8 %5 to i1
  %not. = xor i1 %4, true
  %.not = select i1 %not., i1 %6, i1 false
  %.not1 = xor i1 %1, true
  %brmerge = or i1 %.not, %.not1
  br i1 %brmerge, label %9, label %7, !prof !45

7:                                                ; preds = %2
  %8 = getelementptr inbounds nuw i8, ptr %0, i64 8
  store i64 -1, ptr %8, align 8, !tbaa !25
  br label %9

9:                                                ; preds = %2, %7
  ret i32 0
}